target datalayout = "e-m:e-p270:32:32-p271:32:32-p272:64:64-i64:64-i128:128-f80:128-n8:16:32:64-S128"
target triple = "x86_64-unknown-linux-gnu"

%struct.MemoryRegionOps = type { ptr, ptr, ptr, ptr, i32, %struct.anon, %struct.anon.0 }
%struct.anon = type { i32, i32, i8, ptr }
%struct.anon.0 = type { i32, i32, i8 }
%struct.QTailQLink = type { ptr, ptr }
%struct.MemoryRegion = type { %struct.Object, i8, i8, i8, i8, i8, i8, i8, i8, i8, i8, ptr, ptr, ptr, ptr, ptr, ptr, i32, i128, i64, ptr, i64, i8, i8, i8, i8, i8, ptr, i64, i32, %union.anon.2, %union.anon.3, %union.anon.4, ptr, i32, ptr, ptr, i8 }
%struct.Object = type { ptr, ptr, ptr, i32, ptr }
%union.anon.2 = type { %struct.QTailQLink }
%union.anon.3 = type { %struct.QTailQLink }
%union.anon.4 = type { %struct.QTailQLink }
%struct.MemoryRegionPortio = type { i32, i32, i32, ptr, ptr, i32 }
%struct.PortioList = type { ptr, ptr, ptr, i32, ptr, ptr, ptr, i8 }
%struct.MemoryRegionPortioList = type { %struct.Object, %struct.MemoryRegion, ptr, ptr }

@.str.1 = private unnamed_addr constant [24 x i8] c"../qemu/system/ioport.c\00", align 1
@.str.9 = private unnamed_addr constant [26 x i8] c"memory-region-portio-list\00", align 1
@portio_ops = internal constant %struct.MemoryRegionOps { ptr @portio_read, ptr @portio_write, ptr null, ptr null, i32 2, %struct.anon { i32 0, i32 0, i8 1, ptr null }, %struct.anon.0 { i32 0, i32 0, i8 1 } }, align 8
@.str.10 = private unnamed_addr constant [12 x i8] c"/unattached\00", align 1
@.str.11 = private unnamed_addr constant [6 x i8] c"%s[*]\00", align 1
@__func__.MEMORY_REGION_PORTIO_LIST = private unnamed_addr constant [26 x i8] c"MEMORY_REGION_PORTIO_LIST\00", align 1

; Function Attrs: nounwind sspstrong uwtable
define internal ptr @MEMORY_REGION_PORTIO_LIST(ptr noundef %obj) #0 {
entry:
  %obj.addr = alloca ptr, align 8
  store ptr %obj, ptr %obj.addr, align 8
  %0 = load ptr, ptr %obj.addr, align 8
  %call = call ptr @object_dynamic_cast_assert(ptr noundef %0, ptr noundef @.str.9, ptr noundef @.str.1, i32 noundef 44, ptr noundef @__func__.MEMORY_REGION_PORTIO_LIST)
  ret ptr %call
}

; Function Attrs: nounwind sspstrong uwtable
define internal void @portio_list_add_1(ptr noundef %piolist, ptr noundef %pio_init, i32 noundef %count, i32 noundef %start, i32 noundef %off_low, i32 noundef %off_high) #0 {
entry:
  %piolist.addr = alloca ptr, align 8
  %pio_init.addr = alloca ptr, align 8
  %count.addr = alloca i32, align 4
  %start.addr = alloca i32, align 4
  %off_low.addr = alloca i32, align 4
  %off_high.addr = alloca i32, align 4
  %mrpio = alloca ptr, align 8
  %owner = alloca ptr, align 8
  %name = alloca ptr, align 8
  %i = alloca i32, align 4
  store ptr %piolist, ptr %piolist.addr, align 8
  store ptr %pio_init, ptr %pio_init.addr, align 8
  store i32 %count, ptr %count.addr, align 4
  store i32 %start, ptr %start.addr, align 4
  store i32 %off_low, ptr %off_low.addr, align 4
  store i32 %off_high, ptr %off_high.addr, align 4
  %call = call ptr @object_new(ptr noundef @.str.9)
  %call1 = call ptr @MEMORY_REGION_PORTIO_LIST(ptr noundef %call)
  store ptr %call1, ptr %mrpio, align 8
  %0 = load ptr, ptr %piolist.addr, align 8
  %opaque = getelementptr inbounds %struct.PortioList, ptr %0, i32 0, i32 5
  %1 = load ptr, ptr %opaque, align 8
  %2 = load ptr, ptr %mrpio, align 8
  %portio_opaque = getelementptr inbounds %struct.MemoryRegionPortioList, ptr %2, i32 0, i32 2
  store ptr %1, ptr %portio_opaque, align 16
  %3 = load i32, ptr %count.addr, align 4
  %add = add i32 %3, 1
  %conv = zext i32 %add to i64
  %mul = mul i64 40, %conv
  %call2 = call noalias ptr @g_malloc0(i64 noundef %mul) #13
  %4 = load ptr, ptr %mrpio, align 8
  %ports = getelementptr inbounds %struct.MemoryRegionPortioList, ptr %4, i32 0, i32 3
  store ptr %call2, ptr %ports, align 8
  %5 = load ptr, ptr %mrpio, align 8
  %ports3 = getelementptr inbounds %struct.MemoryRegionPortioList, ptr %5, i32 0, i32 3
  %6 = load ptr, ptr %ports3, align 8
  %7 = load ptr, ptr %pio_init.addr, align 8
  %8 = load i32, ptr %count.addr, align 4
  %conv4 = zext i32 %8 to i64
  %mul5 = mul i64 40, %conv4
  call void @llvm.memcpy.p0.p0.i64(ptr align 8 %6, ptr align 8 %7, i64 %mul5, i1 false)
  %9 = load ptr, ptr %mrpio, align 8
  %ports6 = getelementptr inbounds %struct.MemoryRegionPortioList, ptr %9, i32 0, i32 3
  %10 = load ptr, ptr %ports6, align 8
  %11 = load i32, ptr %count.addr, align 4
  %idx.ext = zext i32 %11 to i64
  %add.ptr = getelementptr %struct.MemoryRegionPortio, ptr %10, i64 %idx.ext
  call void @llvm.memset.p0.i64(ptr align 8 %add.ptr, i8 0, i64 40, i1 false)
  store i32 0, ptr %i, align 4
  br label %for.cond

for.cond:                                         ; preds = %for.inc, %entry
  %12 = load i32, ptr %i, align 4
  %13 = load i32, ptr %count.addr, align 4
  %cmp = icmp ult i32 %12, %13
  br i1 %cmp, label %for.body, label %for.end

for.body:                                         ; preds = %for.cond
  %14 = load i32, ptr %off_low.addr, align 4
  %15 = load ptr, ptr %mrpio, align 8
  %ports8 = getelementptr inbounds %struct.MemoryRegionPortioList, ptr %15, i32 0, i32 3
  %16 = load ptr, ptr %ports8, align 8
  %17 = load i32, ptr %i, align 4
  %idxprom = zext i32 %17 to i64
  %arrayidx = getelementptr %struct.MemoryRegionPortio, ptr %16, i64 %idxprom
  %offset = getelementptr inbounds %struct.MemoryRegionPortio, ptr %arrayidx, i32 0, i32 0
  %18 = load i32, ptr %offset, align 8
  %sub = sub i32 %18, %14
  store i32 %sub, ptr %offset, align 8
  %19 = load i32, ptr %start.addr, align 4
  %20 = load i32, ptr %off_low.addr, align 4
  %add9 = add i32 %19, %20
  %21 = load ptr, ptr %mrpio, align 8
  %ports10 = getelementptr inbounds %struct.MemoryRegionPortioList, ptr %21, i32 0, i32 3
  %22 = load ptr, ptr %ports10, align 8
  %23 = load i32, ptr %i, align 4
  %idxprom11 = zext i32 %23 to i64
  %arrayidx12 = getelementptr %struct.MemoryRegionPortio, ptr %22, i64 %idxprom11
  %base = getelementptr inbounds %struct.MemoryRegionPortio, ptr %arrayidx12, i32 0, i32 5
  store i32 %add9, ptr %base, align 8
  br label %for.inc

for.inc:                                          ; preds = %for.body
  %24 = load i32, ptr %i, align 4
  %inc = add i32 %24, 1
  store i32 %inc, ptr %i, align 4
  br label %for.cond, !llvm.loop !9

for.end:                                          ; preds = %for.cond
  %25 = load ptr, ptr %mrpio, align 8
  %mr = getelementptr inbounds %struct.MemoryRegionPortioList, ptr %25, i32 0, i32 1
  %26 = load ptr, ptr %mrpio, align 8
  %27 = load ptr, ptr %mrpio, align 8
  %28 = load ptr, ptr %piolist.addr, align 8
  %name13 = getelementptr inbounds %struct.PortioList, ptr %28, i32 0, i32 6
  %29 = load ptr, ptr %name13, align 8
  %30 = load i32, ptr %off_high.addr, align 4
  %31 = load i32, ptr %off_low.addr, align 4
  %sub14 = sub i32 %30, %31
  %conv15 = zext i32 %sub14 to i64
  call void @memory_region_init_io(ptr noundef %mr, ptr noundef %26, ptr noundef @portio_ops, ptr noundef %27, ptr noundef %29, i64 noundef %conv15)
  %32 = load ptr, ptr %mrpio, align 8
  %mr16 = getelementptr inbounds %struct.MemoryRegionPortioList, ptr %32, i32 0, i32 1
  %call17 = call ptr @object_ref(ptr noundef %mr16)
  %33 = load ptr, ptr %mrpio, align 8
  %mr18 = getelementptr inbounds %struct.MemoryRegionPortioList, ptr %33, i32 0, i32 1
  call void @object_unparent(ptr noundef %mr18)
  %34 = load ptr, ptr %piolist.addr, align 8
  %owner19 = getelementptr inbounds %struct.PortioList, ptr %34, i32 0, i32 1
  %35 = load ptr, ptr %owner19, align 8
  %tobool = icmp ne ptr %35, null
  br i1 %tobool, label %if.else, label %if.then

if.then:                                          ; preds = %for.end
  %call20 = call ptr @qdev_get_machine()
  %call21 = call ptr @container_get(ptr noundef %call20, ptr noundef @.str.10)
  store ptr %call21, ptr %owner, align 8
  br label %if.end

if.else:                                          ; preds = %for.end
  %36 = load ptr, ptr %piolist.addr, align 8
  %owner22 = getelementptr inbounds %struct.PortioList, ptr %36, i32 0, i32 1
  %37 = load ptr, ptr %owner22, align 8
  store ptr %37, ptr %owner, align 8
  br label %if.end

if.end:                                           ; preds = %if.else, %if.then
  %38 = load ptr, ptr %piolist.addr, align 8
  %name23 = getelementptr inbounds %struct.PortioList, ptr %38, i32 0, i32 6
  %39 = load ptr, ptr %name23, align 8
  %call24 = call noalias ptr (ptr, ...) @g_strdup_printf(ptr noundef @.str.11, ptr noundef %39)
  store ptr %call24, ptr %name, align 8
  %40 = load ptr, ptr %owner, align 8
  %41 = load ptr, ptr %name, align 8
  %42 = load ptr, ptr %mrpio, align 8
  %mr25 = getelementptr inbounds %struct.MemoryRegionPortioList, ptr %42, i32 0, i32 1
  %call26 = call ptr @object_property_add_child(ptr noundef %40, ptr noundef %41, ptr noundef %mr25)
  %43 = load ptr, ptr %name, align 8
  call void @g_free(ptr noundef %43)
  %44 = load ptr, ptr %piolist.addr, align 8
  %flush_coalesced_mmio = getelementptr inbounds %struct.PortioList, ptr %44, i32 0, i32 7
  %45 = load i8, ptr %flush_coalesced_mmio, align 8
  %tobool27 = trunc i8 %45 to i1
  br i1 %tobool27, label %if.then28, label %if.end30

if.then28:                                        ; preds = %if.end
  %46 = load ptr, ptr %mrpio, align 8
  %mr29 = getelementptr inbounds %struct.MemoryRegionPortioList, ptr %46, i32 0, i32 1
  call void @memory_region_set_flush_coalesced(ptr noundef %mr29)
  br label %if.end30

if.end30:                                         ; preds = %if.then28, %if.end
  %47 = load ptr, ptr %piolist.addr, align 8
  %address_space = getelementptr inbounds %struct.PortioList, ptr %47, i32 0, i32 2
  %48 = load ptr, ptr %address_space, align 8
  %49 = load i32, ptr %start.addr, align 4
  %50 = load i32, ptr %off_low.addr, align 4
  %add31 = add i32 %49, %50
  %conv32 = zext i32 %add31 to i64
  %51 = load ptr, ptr %mrpio, align 8
  %mr33 = getelementptr inbounds %struct.MemoryRegionPortioList, ptr %51, i32 0, i32 1
  call void @memory_region_add_subregion(ptr noundef %48, i64 noundef %conv32, ptr noundef %mr33)
  %52 = load ptr, ptr %mrpio, align 8
  %mr34 = getelementptr inbounds %struct.MemoryRegionPortioList, ptr %52, i32 0, i32 1
  %53 = load ptr, ptr %piolist.addr, align 8
  %regions = getelementptr inbounds %struct.PortioList, ptr %53, i32 0, i32 4
  %54 = load ptr, ptr %regions, align 8
  %55 = load ptr, ptr %piolist.addr, align 8
  %nr = getelementptr inbounds %struct.PortioList, ptr %55, i32 0, i32 3
  %56 = load i32, ptr %nr, align 8
  %idxprom35 = zext i32 %56 to i64
  %arrayidx36 = getelementptr ptr, ptr %54, i64 %idxprom35
  store ptr %mr34, ptr %arrayidx36, align 8
  %57 = load ptr, ptr %piolist.addr, align 8
  %nr37 = getelementptr inbounds %struct.PortioList, ptr %57, i32 0, i32 3
  %58 = load i32, ptr %nr37, align 8
  %inc38 = add i32 %58, 1
  store i32 %inc38, ptr %nr37, align 8
  ret void
}