; Function Attrs: nounwind sspstrong uwtable
define internal fastcc void @portio_list_add_1(ptr noundef captures(none) %piolist, ptr noundef readonly captures(none) %pio_init, i32 noundef %count, i32 noundef %start, i32 noundef %off_low, i32 noundef %off_high) unnamed_addr #1 {
entry:
  %call = tail call ptr @object_new(ptr noundef nonnull @.str.9) #11
  %call.i = tail call ptr @object_dynamic_cast_assert(ptr noundef %call, ptr noundef nonnull @.str.9, ptr noundef nonnull @.str.1, i32 noundef 44, ptr noundef nonnull @__func__.MEMORY_REGION_PORTIO_LIST) #11
  %opaque = getelementptr inbounds nuw i8, ptr %piolist, i64 40
  %0 = load ptr, ptr %opaque, align 8
  %portio_opaque = getelementptr inbounds nuw i8, ptr %call.i, i64 320
  store ptr %0, ptr %portio_opaque, align 16
  %add = add i32 %count, 1
  %conv = zext i32 %add to i64
  %mul = mul nuw nsw i64 %conv, 40
  %call2 = tail call noalias ptr @g_malloc0(i64 noundef %mul) #14
  %ports = getelementptr inbounds nuw i8, ptr %call.i, i64 328
  store ptr %call2, ptr %ports, align 8
  %conv4 = zext i32 %count to i64
  %mul5 = mul nuw nsw i64 %conv4, 40
  tail call void @llvm.memcpy.p0.p0.i64(ptr align 8 %call2, ptr align 8 %pio_init, i64 %mul5, i1 false)
  %add.ptr = getelementptr %struct.MemoryRegionPortio, ptr %call2, i64 %conv4
  tail call void @llvm.memset.p0.i64(ptr noundef nonnull align 8 dereferenceable(40) %add.ptr, i8 0, i64 40, i1 false)
  %cmp35.not = icmp eq i32 %count, 0
  br i1 %cmp35.not, label %for.end, label %for.body.lr.ph

for.body.lr.ph:                                   ; preds = %entry
  %add9 = add i32 %off_low, %start
  br label %for.body

for.body:                                         ; preds = %for.body.lr.ph, %for.body
  %indvars.iv = phi i64 [ 0, %for.body.lr.ph ], [ %indvars.iv.next, %for.body ]
  %1 = load ptr, ptr %ports, align 8
  %arrayidx = getelementptr %struct.MemoryRegionPortio, ptr %1, i64 %indvars.iv
  %2 = load i32, ptr %arrayidx, align 8
  %sub = sub i32 %2, %off_low
  store i32 %sub, ptr %arrayidx, align 8
  %3 = load ptr, ptr %ports, align 8
  %base = getelementptr %struct.MemoryRegionPortio, ptr %3, i64 %indvars.iv, i32 5
  store i32 %add9, ptr %base, align 8
  %indvars.iv.next = add nuw nsw i64 %indvars.iv, 1
  %exitcond.not = icmp eq i64 %indvars.iv.next, %conv4
  br i1 %exitcond.not, label %for.end, label %for.body, !llvm.loop !12

for.end:                                          ; preds = %for.body, %entry
  %mr = getelementptr inbounds nuw i8, ptr %call.i, i64 48
  %name13 = getelementptr inbounds nuw i8, ptr %piolist, i64 48
  %4 = load ptr, ptr %name13, align 8
  %sub14 = sub i32 %off_high, %off_low
  %conv15 = zext i32 %sub14 to i64
  tail call void @memory_region_init_io(ptr noundef nonnull %mr, ptr noundef nonnull %call.i, ptr noundef nonnull @portio_ops, ptr noundef nonnull %call.i, ptr noundef %4, i64 noundef %conv15) #11
  %call17 = tail call ptr @object_ref(ptr noundef nonnull %mr) #11
  tail call void @object_unparent(ptr noundef nonnull %mr) #11
  %owner19 = getelementptr inbounds nuw i8, ptr %piolist, i64 8
  %5 = load ptr, ptr %owner19, align 8
  %tobool.not = icmp eq ptr %5, null
  br i1 %tobool.not, label %if.then, label %if.end

if.then:                                          ; preds = %for.end
  %call20 = tail call ptr @qdev_get_machine() #11
  %call21 = tail call ptr @container_get(ptr noundef %call20, ptr noundef nonnull @.str.10) #11
  br label %if.end

if.end:                                           ; preds = %for.end, %if.then
  %owner.0 = phi ptr [ %call21, %if.then ], [ %5, %for.end ]
  %6 = load ptr, ptr %name13, align 8
  %call24 = tail call noalias ptr (ptr, ...) @g_strdup_printf(ptr noundef nonnull @.str.11, ptr noundef %6) #11
  %call26 = tail call ptr @object_property_add_child(ptr noundef %owner.0, ptr noundef %call24, ptr noundef nonnull %mr) #11
  tail call void @g_free(ptr noundef %call24) #11
  %flush_coalesced_mmio = getelementptr inbounds nuw i8, ptr %piolist, i64 56
  %7 = load i8, ptr %flush_coalesced_mmio, align 8
  %tobool27 = trunc i8 %7 to i1
  br i1 %tobool27, label %if.then28, label %if.end30

if.then28:                                        ; preds = %if.end
  tail call void @memory_region_set_flush_coalesced(ptr noundef nonnull %mr) #11
  br label %if.end30

if.end30:                                         ; preds = %if.then28, %if.end
  %address_space = getelementptr inbounds nuw i8, ptr %piolist, i64 16
  %8 = load ptr, ptr %address_space, align 8
  %add31 = add i32 %off_low, %start
  %conv32 = zext i32 %add31 to i64
  tail call void @memory_region_add_subregion(ptr noundef %8, i64 noundef %conv32, ptr noundef nonnull %mr) #11
  %regions = getelementptr inbounds nuw i8, ptr %piolist, i64 32
  %9 = load ptr, ptr %regions, align 8
  %nr = getelementptr inbounds nuw i8, ptr %piolist, i64 24
  %10 = load i32, ptr %nr, align 8
  %idxprom35 = zext i32 %10 to i64
  %arrayidx36 = getelementptr ptr, ptr %9, i64 %idxprom35
  store ptr %mr, ptr %arrayidx36, align 8
  %11 = load i32, ptr %nr, align 8
  %inc38 = add i32 %11, 1
  store i32 %inc38, ptr %nr, align 8
  ret void
}